                      ; Assembler file generated by Auto Disassembler V20230623
                      ;                Program developed by Ruud Baltissen
                      ;
                      ; Syntax modified for A09 assembler



 00C1                 D00C1   EQU     $00C1
 00C8                 D00C8   EQU     $00C8
 00D3                 D00D3   EQU     $00D3
 010F                 D010F   EQU     $010F
 0770                 A0770   EQU     $0770
 1183                 D1183   EQU     $1183
 1234                 P1234   EQU     $1234
 4321                 D4321   EQU     $4321
 9876                 D9876   EQU     $9876
                       
                       
                       
                              OPT     M09
                       


                              ORG     $0000                           ; Begin address of this block
                      D0000:                                  ;                               [0000]
 0000 3404                    pshs    b
 0002 ABE0                    adda    ,s+
 0004 3A                      abx
 0005 8913                    adca    #$13
 0007 9912                    adca    <$12
 0009 B91234                  adca    P1234                   ;                               [1234]
 000C A984                    adca    ,x
 000E A900                    adca    0,x
 0010 A901                    adca    1,x
 0012 A91F                    adca    -1,x
 0014 A90F                    adca    15,x
 0016 A910                    adca    -16,x
 0018 A98810                  adca    16,x
 001B A988EF                  adca    -17,x
 001E A9887F                  adca    127,x
 0021 A98880                  adca    -128,x
 0024 A9890080                adca    $0080,x
 0028 A989FF7F                adca    -$0081,x
 002C A986                    adca    a,x
 002E A985                    adca    b,x
 0030 A98B                    adca    d,x
 0032 A980                    adca    ,x+
 0034 A981                    adca    ,x++
 0036 A982                    adca    ,-x
 0038 A983                    adca    ,--x
 003A A9A4                    adca    ,y
 003C A920                    adca    0,y
 003E A921                    adca    1,y
 0040 A93F                    adca    -1,y
 0042 A92F                    adca    15,y
 0044 A930                    adca    -16,y
 0046 A9A810                  adca    16,y
 0049 A9A8EF                  adca    -17,y
 004C A9A87F                  adca    127,y
 004F A9A880                  adca    -128,y
 0052 A9A90080                adca    $0080,y
 0056 A9A9FF7F                adca    -$0081,y
 005A A9A6                    adca    a,y
 005C A9A5                    adca    b,y
 005E A9AB                    adca    d,y
 0060 A9A0                    adca    ,y+
 0062 A9A1                    adca    ,y++
 0064 A9A2                    adca    ,-y
 0066 A9A3                    adca    ,--y
 0068 A99F1234                adca    [$1234]
 006C A9F4                    adca    [,s]
 006E A9D4                    adca    [,u]
 0070 A994                    adca    [,x]
 0072 A993                    adca    [,--x]
 0074 A991                    adca    [,x++]
 0076 A9B4                    adca    [,y]
 0078 A994                    adca    [,x]
 007A A9980F                  adca    [15,x]
 007D A9987F                  adca    [127,x]
 0080 A9990080                adca    [$0080,x]
 0084 A996                    adca    [a,x]
 0086 A995                    adca    [b,x]
 0088 A900                    adca    0,x
 008A A901                    adca    1,x
 008C A90F                    adca    15,x
 008E A910                    adca    -16,x
 0090 A91F                    adca    -1,x
 0092 A980                    adca    ,x+
 0094 A981                    adca    ,x++
 0096 A982                    adca    ,-x
 0098 A983                    adca    ,--x
 009A A984                    adca    ,x
 009C A985                    adca    b,x
 009E A986                    adca    a,x
 00A0 A98810                  adca    16,x
 00A3 A9887F                  adca    127,x
 00A6 A98880                  adca    -128,x
 00A9 A988EF                  adca    -17,x
 00AC A9890080                adca    $0080,x
 00B0 A9897FFF                adca    $7FFF,x
 00B4 A9898000                adca    -$8000,x
 00B8 A989FF7F                adca    -$0081,x
 00BC A98B                    adca    d,x
 00BE A98C00                  adca    D00C1,pcr
 00C1 A98C04                  adca    D00C8,pcr
 00C4 A98DFF38                adca    D0000,pcr
 00C8 A98CFD                  adca    D00C8,pcr
 00CB A98D03D8                adca    D04A7,pcr
 00CF A99F1234                adca    [$1234]
 00D3 A99B                    adca    [d,x]
 00D5 A9F1                    adca    [,s++]
 00D7 A9D1                    adca    [,u++]
 00D9 A991                    adca    [,x++]
 00DB A9B1                    adca    [,y++]
 00DD A9F3                    adca    [,--s]
 00DF A9D3                    adca    [,--u]
 00E1 A993                    adca    [,--x]
 00E3 A9B3                    adca    [,--y]
 00E5 A99DFF17                adca    [D0000,pcr]
 00E9 A99CE7                  adca    [D00D3,pcr]
 00EC A99C20                  adca    [D010F,pcr]
 00EF A99D0492                adca    [D0583,pcr]
 00F3 A9E4                    adca    ,s
 00F5 A9C4                    adca    ,u
 00F7 A99DFF05                adca    [D0000,pcr]
 00FB A99DFF01                adca    [D0000,pcr]
 00FF A99DFEFD                adca    [D0000,pcr]
 0103 A99DFEF9                adca    [D0000,pcr]
 0107 A993                    adca    [,--x]
 0109 A991                    adca    [,x++]
 010B A984                    adca    ,x
 010D A9A4                    adca    ,y
 010F A98D0D04                adca    D0E13,pcr
 0113 A99D0D00                adca    [D0E13,pcr]
 0117 C913                    adcb    #$13
 0119 D912                    adcb    <$12
 011B F94321                  adcb    D4321                   ;                               [4321]
 011E E984                    adcb    ,x
 0120 E900                    adcb    0,x
 0122 E901                    adcb    1,x
 0124 E91F                    adcb    -1,x
 0126 E90F                    adcb    15,x
 0128 E910                    adcb    -16,x
 012A E98810                  adcb    16,x
 012D E988EF                  adcb    -17,x
 0130 E9887F                  adcb    127,x
 0133 E98880                  adcb    -128,x
 0136 E9890080                adcb    $0080,x
 013A E989FF7F                adcb    -$0081,x
 013E E986                    adcb    a,x
 0140 E985                    adcb    b,x
 0142 E98B                    adcb    d,x
 0144 E980                    adcb    ,x+
 0146 E981                    adcb    ,x++
 0148 E982                    adcb    ,-x
 014A E983                    adcb    ,--x
 014C E99F1234                adcb    [$1234]
 0150 E994                    adcb    [,x]
 0152 E994                    adcb    [,x]
 0154 E9980F                  adcb    [15,x]
 0157 E9987F                  adcb    [127,x]
 015A E9990080                adcb    [$0080,x]
 015E E996                    adcb    [a,x]
 0160 E995                    adcb    [b,x]
 0162 E99B                    adcb    [d,x]
 0164 E9F1                    adcb    [,s++]
 0166 E9D1                    adcb    [,u++]
 0168 E991                    adcb    [,x++]
 016A E9B1                    adcb    [,y++]
 016C E9F3                    adcb    [,--s]
 016E E9D3                    adcb    [,--u]
 0170 E993                    adcb    [,--x]
 0172 E9B3                    adcb    [,--y]
 0174 E99DFE88                adcb    [D0000,pcr]
 0178 E99DFF57                adcb    [D00D3,pcr]
 017C E99C90                  adcb    [D010F,pcr]
 017F E99D0402                adcb    [D0583,pcr]
 0183 E9E4                    adcb    ,s
 0185 E9C4                    adcb    ,u
 0187 E984                    adcb    ,x
 0189 E9A4                    adcb    ,y
 018B 8B13                    adda    #$13
 018D 9B12                    adda    <$12
 018F BB1234                  adda    P1234                   ;                               [1234]
 0192 AB84                    adda    ,x
 0194 AB00                    adda    0,x
 0196 AB01                    adda    1,x
 0198 AB1F                    adda    -1,x
 019A AB0F                    adda    15,x
 019C AB10                    adda    -16,x
 019E AB8810                  adda    16,x
 01A1 AB88EF                  adda    -17,x
 01A4 AB887F                  adda    127,x
 01A7 AB8880                  adda    -128,x
 01AA AB890080                adda    $0080,x
 01AE AB89FF7F                adda    -$0081,x
 01B2 AB86                    adda    a,x
 01B4 AB85                    adda    b,x
 01B6 AB8B                    adda    d,x
 01B8 AB80                    adda    ,x+
 01BA AB81                    adda    ,x++
 01BC AB82                    adda    ,-x
 01BE AB83                    adda    ,--x
 01C0 AB9F1234                adda    [$1234]
 01C4 AB94                    adda    [,x]
 01C6 AB94                    adda    [,x]
 01C8 AB980F                  adda    [15,x]
 01CB AB987F                  adda    [127,x]
 01CE AB990080                adda    [$0080,x]
 01D2 AB96                    adda    [a,x]
 01D4 AB95                    adda    [b,x]
 01D6 AB9B                    adda    [d,x]
 01D8 ABF1                    adda    [,s++]
 01DA ABD1                    adda    [,u++]
 01DC AB91                    adda    [,x++]
 01DE ABB1                    adda    [,y++]
 01E0 ABF3                    adda    [,--s]
 01E2 ABD3                    adda    [,--u]
 01E4 AB93                    adda    [,--x]
 01E6 ABB3                    adda    [,--y]
 01E8 AB9DFE14                adda    [D0000,pcr]
 01EC AB9DFEE3                adda    [D00D3,pcr]
 01F0 AB9DFF1B                adda    [D010F,pcr]
 01F4 AB9D038D                adda    [D0583,pcr]
 01F8 ABE4                    adda    ,s
 01FA ABC4                    adda    ,u
 01FC AB84                    adda    ,x
 01FE ABA4                    adda    ,y
 0200 CB13                    addb    #$13
 0202 DB12                    addb    <$12
 0204 FB1234                  addb    P1234                   ;                               [1234]
 0207 EB84                    addb    ,x
 0209 EB00                    addb    0,x
 020B EB01                    addb    1,x
 020D EB1F                    addb    -1,x
 020F EB0F                    addb    15,x
 0211 EB10                    addb    -16,x
 0213 EB8810                  addb    16,x
 0216 EB88EF                  addb    -17,x
 0219 EB887F                  addb    127,x
 021C EB8880                  addb    -128,x
 021F EB890080                addb    $0080,x
 0223 EB89FF7F                addb    -$0081,x
 0227 EB86                    addb    a,x
 0229 EB85                    addb    b,x
 022B EB8B                    addb    d,x
 022D EB80                    addb    ,x+
 022F EB81                    addb    ,x++
 0231 EB82                    addb    ,-x
 0233 EB83                    addb    ,--x
 0235 EB9F1234                addb    [$1234]
 0239 EB94                    addb    [,x]
 023B EB94                    addb    [,x]
 023D EB980F                  addb    [15,x]
 0240 EB987F                  addb    [127,x]
 0243 EB990080                addb    [$0080,x]
 0247 EB96                    addb    [a,x]
 0249 EB95                    addb    [b,x]
 024B EB9B                    addb    [d,x]
 024D EBF1                    addb    [,s++]
 024F EBD1                    addb    [,u++]
 0251 EB91                    addb    [,x++]
 0253 EBB1                    addb    [,y++]
 0255 EBF3                    addb    [,--s]
 0257 EBD3                    addb    [,--u]
 0259 EB93                    addb    [,--x]
 025B EBB3                    addb    [,--y]
 025D EB9DFD9F                addb    [D0000,pcr]
 0261 EB9DFE6E                addb    [D00D3,pcr]
 0265 EB9DFEA6                addb    [D010F,pcr]
 0269 EB9D0318                addb    [D0583,pcr]
 026D EBE4                    addb    ,s
 026F EBC4                    addb    ,u
 0271 EB84                    addb    ,x
 0273 EBA4                    addb    ,y
 0275 C30013                  addd    #$0013                  ;                               [0013]
 0278 D312                    addd    <$12
 027A F39876                  addd    D9876                   ;                               [9876]
 027D E384                    addd    ,x
 027F E300                    addd    0,x
 0281 E301                    addd    1,x
 0283 E31F                    addd    -1,x
 0285 E30F                    addd    15,x
 0287 E310                    addd    -16,x
 0289 E38810                  addd    16,x
 028C E388EF                  addd    -17,x
 028F E3887F                  addd    127,x
 0292 E38880                  addd    -128,x
 0295 E3890080                addd    $0080,x
 0299 E389FF7F                addd    -$0081,x
 029D E386                    addd    a,x
 029F E385                    addd    b,x
 02A1 E38B                    addd    d,x
 02A3 E380                    addd    ,x+
 02A5 E381                    addd    ,x++
 02A7 E382                    addd    ,-x
 02A9 E383                    addd    ,--x
 02AB E39F1234                addd    [$1234]
 02AF E394                    addd    [,x]
 02B1 E394                    addd    [,x]
 02B3 E3980F                  addd    [15,x]
 02B6 E3987F                  addd    [127,x]
 02B9 E3990080                addd    [$0080,x]
 02BD E396                    addd    [a,x]
 02BF E395                    addd    [b,x]
 02C1 E39B                    addd    [d,x]
 02C3 E3F1                    addd    [,s++]
 02C5 E3D1                    addd    [,u++]
 02C7 E391                    addd    [,x++]
 02C9 E3B1                    addd    [,y++]
 02CB E3F3                    addd    [,--s]
 02CD E3D3                    addd    [,--u]
 02CF E393                    addd    [,--x]
 02D1 E3B3                    addd    [,--y]
 02D3 E39DFD29                addd    [D0000,pcr]
 02D7 E39DFDF8                addd    [D00D3,pcr]
 02DB E39DFE30                addd    [D010F,pcr]
 02DF E39D02A2                addd    [D0583,pcr]
 02E3 E3E4                    addd    ,s
 02E5 E3C4                    addd    ,u
 02E7 E384                    addd    ,x
 02E9 E3A4                    addd    ,y
 02EB 8413                    anda    #$13
 02ED 9412                    anda    <$12
 02EF B41234                  anda    P1234                   ;                               [1234]
 02F2 A484                    anda    ,x
 02F4 A400                    anda    0,x
 02F6 A401                    anda    1,x
 02F8 A41F                    anda    -1,x
 02FA A40F                    anda    15,x
 02FC A410                    anda    -16,x
 02FE A48810                  anda    16,x
 0301 A488EF                  anda    -17,x
 0304 A4887F                  anda    127,x
 0307 A48880                  anda    -128,x
 030A A4890080                anda    $0080,x
 030E A489FF7F                anda    -$0081,x
 0312 A486                    anda    a,x
 0314 A485                    anda    b,x
 0316 A48B                    anda    d,x
 0318 A480                    anda    ,x+
 031A A481                    anda    ,x++
 031C A482                    anda    ,-x
 031E A483                    anda    ,--x
 0320 A49F1234                anda    [$1234]
 0324 A494                    anda    [,x]
 0326 A494                    anda    [,x]
 0328 A4980F                  anda    [15,x]
 032B A4987F                  anda    [127,x]
 032E A4990080                anda    [$0080,x]
 0332 A496                    anda    [a,x]
 0334 A495                    anda    [b,x]
 0336 A49B                    anda    [d,x]
 0338 A4F1                    anda    [,s++]
 033A A4D1                    anda    [,u++]
 033C A491                    anda    [,x++]
 033E A4B1                    anda    [,y++]
 0340 A4F3                    anda    [,--s]
 0342 A4D3                    anda    [,--u]
 0344 A493                    anda    [,--x]
 0346 A4B3                    anda    [,--y]
 0348 A49DFCB4                anda    [D0000,pcr]
 034C A49DFD83                anda    [D00D3,pcr]
 0350 A49DFDBB                anda    [D010F,pcr]
 0354 A49D022D                anda    [D0583,pcr]
 0358 A4E4                    anda    ,s
 035A A4C4                    anda    ,u
 035C A484                    anda    ,x
 035E A4A4                    anda    ,y
 0360 C413                    andb    #$13
 0362 D412                    andb    <$12
 0364 F41234                  andb    P1234                   ;                               [1234]
 0367 E484                    andb    ,x
 0369 E400                    andb    0,x
 036B E401                    andb    1,x
 036D E41F                    andb    -1,x
 036F E40F                    andb    15,x
 0371 E410                    andb    -16,x
 0373 E48810                  andb    16,x
 0376 E488EF                  andb    -17,x
 0379 E4887F                  andb    127,x
 037C E48880                  andb    -128,x
 037F E4890080                andb    $0080,x
 0383 E489FF7F                andb    -$0081,x
 0387 E486                    andb    a,x
 0389 E485                    andb    b,x
 038B E48B                    andb    d,x
 038D E480                    andb    ,x+
 038F E481                    andb    ,x++
 0391 E482                    andb    ,-x
 0393 E483                    andb    ,--x
 0395 E49F1234                andb    [$1234]
 0399 E494                    andb    [,x]
 039B E494                    andb    [,x]
 039D E4980F                  andb    [15,x]
 03A0 E4987F                  andb    [127,x]
 03A3 E4990080                andb    [$0080,x]
 03A7 E496                    andb    [a,x]
 03A9 E495                    andb    [b,x]
 03AB E49B                    andb    [d,x]
 03AD E4F1                    andb    [,s++]
 03AF E4D1                    andb    [,u++]
 03B1 E491                    andb    [,x++]
 03B3 E4B1                    andb    [,y++]
 03B5 E4F3                    andb    [,--s]
 03B7 E4D3                    andb    [,--u]
 03B9 E493                    andb    [,--x]
 03BB E4B3                    andb    [,--y]
 03BD E49DFC3F                andb    [D0000,pcr]
 03C1 E49DFD0E                andb    [D00D3,pcr]
 03C5 E49DFD46                andb    [D010F,pcr]
 03C9 E49D01B8                andb    [D0583,pcr]
 03CD E4E4                    andb    ,s
 03CF E4C4                    andb    ,u
 03D1 E484                    andb    ,x
 03D3 E4A4                    andb    ,y
 03D5 1C74                    andcc   $74                     ;                               [74]
 03D7 1CAA                    andcc   $AA                     ;                               [AA]
 03D9 1C55                    andcc   $55                     ;                               [55]
 03DB 0812                    asl     <$12
 03DD 781234                  asl     P1234                   ;                               [1234]
 03E0 6884                    asl     ,x
 03E2 6800                    asl     0,x
 03E4 6801                    asl     1,x
 03E6 681F                    asl     -1,x
 03E8 680F                    asl     15,x
 03EA 6810                    asl     -16,x
 03EC 688810                  asl     16,x
 03EF 6888EF                  asl     -17,x
 03F2 68887F                  asl     127,x
 03F5 688880                  asl     -128,x
 03F8 68890080                asl     $0080,x
 03FC 6889FF7F                asl     -$0081,x
 0400 6886                    asl     a,x
 0402 6885                    asl     b,x
 0404 688B                    asl     d,x
 0406 6880                    asl     ,x+
 0408 6881                    asl     ,x++
 040A 6882                    asl     ,-x
 040C 6883                    asl     ,--x
 040E 689F1234                asl     [$1234]
 0412 6894                    asl     [,x]
 0414 6894                    asl     [,x]
 0416 68980F                  asl     [15,x]
 0419 68987F                  asl     [127,x]
 041C 68990080                asl     [$0080,x]
 0420 6896                    asl     [a,x]
 0422 6895                    asl     [b,x]
 0424 689B                    asl     [d,x]
 0426 68F1                    asl     [,s++]
 0428 68D1                    asl     [,u++]
 042A 6891                    asl     [,x++]
 042C 68B1                    asl     [,y++]
 042E 68F3                    asl     [,--s]
 0430 68D3                    asl     [,--u]
 0432 6893                    asl     [,--x]
 0434 68B3                    asl     [,--y]
 0436 68E4                    asl     ,s
 0438 68C4                    asl     ,u
 043A 6884                    asl     ,x
 043C 68A4                    asl     ,y
 043E 48                      asla
 043F 58                      aslb
 0440 0712                    asr     <$12
 0442 771234                  asr     P1234                   ;                               [1234]
 0445 6784                    asr     ,x
 0447 6700                    asr     0,x
 0449 6701                    asr     1,x
 044B 671F                    asr     -1,x
 044D 670F                    asr     15,x
 044F 6710                    asr     -16,x
 0451 678810                  asr     16,x
 0454 6788EF                  asr     -17,x
 0457 67887F                  asr     127,x
 045A 678880                  asr     -128,x
 045D 67890080                asr     $0080,x
 0461 6789FF7F                asr     -$0081,x
 0465 6786                    asr     a,x
 0467 6785                    asr     b,x
 0469 678B                    asr     d,x
 046B 6780                    asr     ,x+
 046D 6781                    asr     ,x++
 046F 6782                    asr     ,-x
 0471 6783                    asr     ,--x
 0473 679F1234                asr     [$1234]
 0477 6794                    asr     [,x]
 0479 6794                    asr     [,x]
 047B 67980F                  asr     [15,x]
 047E 67987F                  asr     [127,x]
 0481 67990080                asr     [$0080,x]
 0485 6796                    asr     [a,x]
 0487 6795                    asr     [b,x]
 0489 679B                    asr     [d,x]
 048B 67F1                    asr     [,s++]
 048D 67D1                    asr     [,u++]
 048F 6791                    asr     [,x++]
 0491 67B1                    asr     [,y++]
 0493 67F3                    asr     [,--s]
 0495 67D3                    asr     [,--u]
 0497 6793                    asr     [,--x]
 0499 67B3                    asr     [,--y]
 049B 67E4                    asr     ,s
 049D 67C4                    asr     ,u
 049F 6784                    asr     ,x
 04A1 67A4                    asr     ,y
 04A3 47                      asra
 04A4 57                      asrb
 04A5 2400                    bcc     D04A7                   ;                               [04A7]

                      D04A7:                                  ;                               [04A7]
 04A7 25FE                    bcs     D04A7                   ;                               [04A7]

 04A9 27FC                    beq     D04A7                   ;                               [04A7]

 04AB 2CFA                    bge     D04A7                   ;                               [04A7]

 04AD 2EF8                    bgt     D04A7                   ;                               [04A7]

 04AF 22F6                    bhi     D04A7                   ;                               [04A7]

 04B1 24F4                    bcc     D04A7                   ;                               [04A7]

 04B3 8513                    bita    #$13
 04B5 9512                    bita    <$12
 04B7 B51234                  bita    P1234                   ;                               [1234]
 04BA A584                    bita    ,x
 04BC A500                    bita    0,x
 04BE A501                    bita    1,x
 04C0 A51F                    bita    -1,x
 04C2 A50F                    bita    15,x
 04C4 A510                    bita    -16,x
 04C6 A58810                  bita    16,x
 04C9 A588EF                  bita    -17,x
 04CC A5887F                  bita    127,x
 04CF A58880                  bita    -128,x
 04D2 A5890080                bita    $0080,x
 04D6 A589FF7F                bita    -$0081,x
 04DA A586                    bita    a,x
 04DC A585                    bita    b,x
 04DE A58B                    bita    d,x
 04E0 A580                    bita    ,x+
 04E2 A581                    bita    ,x++
 04E4 A582                    bita    ,-x
 04E6 A583                    bita    ,--x
 04E8 A59F1234                bita    [$1234]
 04EC A594                    bita    [,x]
 04EE A594                    bita    [,x]
 04F0 A5980F                  bita    [15,x]
 04F3 A5987F                  bita    [127,x]
 04F6 A5990080                bita    [$0080,x]
 04FA A596                    bita    [a,x]
 04FC A595                    bita    [b,x]
 04FE A59B                    bita    [d,x]
 0500 A591                    bita    [,x++]
 0502 A593                    bita    [,--x]
 0504 A59DFAF8                bita    [D0000,pcr]
 0508 A59DFC03                bita    [D010F,pcr]
 050C A59DFBC3                bita    [D00D3,pcr]
 0510 A59D0071                bita    [D0583,pcr]
 0514 A5E4                    bita    ,s
 0516 A5C4                    bita    ,u
 0518 A584                    bita    ,x
 051A A5A4                    bita    ,y
 051C C513                    bitb    #$13
 051E D512                    bitb    <$12
 0520 F51234                  bitb    P1234                   ;                               [1234]
 0523 E584                    bitb    ,x
 0525 E500                    bitb    0,x
 0527 E501                    bitb    1,x
 0529 E51F                    bitb    -1,x
 052B E50F                    bitb    15,x
 052D E510                    bitb    -16,x
 052F E58810                  bitb    16,x
 0532 E588EF                  bitb    -17,x
 0535 E5887F                  bitb    127,x
 0538 E58880                  bitb    -128,x
 053B E5890080                bitb    $0080,x
 053F E589FF7F                bitb    -$0081,x
 0543 E586                    bitb    a,x
 0545 E585                    bitb    b,x
 0547 E58B                    bitb    d,x
 0549 E580                    bitb    ,x+
 054B E581                    bitb    ,x++
 054D E582                    bitb    ,-x
 054F E583                    bitb    ,--x
 0551 E59F1234                bitb    [$1234]
 0555 E594                    bitb    [,x]
 0557 E594                    bitb    [,x]
 0559 E5980F                  bitb    [15,x]
 055C E5987F                  bitb    [127,x]
 055F E5990080                bitb    [$0080,x]
 0563 E596                    bitb    [a,x]
 0565 E595                    bitb    [b,x]
 0567 E59B                    bitb    [d,x]
 0569 E591                    bitb    [,x++]
 056B E593                    bitb    [,--x]
 056D E59DFA8F                bitb    [D0000,pcr]
 0571 E59DFB9A                bitb    [D010F,pcr]
 0575 E59DFB5A                bitb    [D00D3,pcr]
 0579 E59D0008                bitb    [D0583,pcr]
 057D E5E4                    bitb    ,s
 057F E5C4                    bitb    ,u
 0581 E584                    bitb    ,x
 0583 E5A4                    bitb    ,y
                      D0583:                                  ;                               [0583]
 0585 2FFE                    ble     D0583                   ;                               [0583]

 0587 25FC                    bcs     D0583                   ;                               [0583]

 0589 23FA                    bls     D0583                   ;                               [0583]

 058B 2D08                    blt     A0593                   ;                               [0593]

 058D 2BF6                    bmi     D0583                   ;                               [0583]

 058F 26F4                    bne     D0583                   ;                               [0583]

 0591 2AF2                    bpl     D0583                   ;                               [0583]

 0593 20F0                    bra     D0583                   ;                               [0583]

                      A0593:                                  ;                               [0593]
 0595 21EE                    brn     D0583                   ;                               [0583]

 0597 8DEC                    bsr     D0583                   ;                               [0583]

 0599 28EA                    bvc     D0583                   ;                               [0583]

 059B 29E8                    bvs     D0583                   ;                               [0583]

 059D 3404                    pshs    b
 059F A1E0                    cmpa    ,s+
 05A1 1CFE                    andcc   $FE                     ;                               [FE]
 05A3 1CEF                    andcc   $EF                     ;                               [EF]
 05A5 0F12                    clr     <$12
 05A7 7F1234                  clr     P1234                   ;                               [1234]
 05AA 6F84                    clr     ,x
 05AC 6F00                    clr     0,x
 05AE 6F01                    clr     1,x
 05B0 6F1F                    clr     -1,x
 05B2 6F0F                    clr     15,x
 05B4 6F10                    clr     -16,x
 05B6 6F8810                  clr     16,x
 05B9 6F88EF                  clr     -17,x
 05BC 6F887F                  clr     127,x
 05BF 6F8880                  clr     -128,x
 05C2 6F890080                clr     $0080,x
 05C6 6F89FF7F                clr     -$0081,x
 05CA 6F86                    clr     a,x
 05CC 6F85                    clr     b,x
 05CE 6F8B                    clr     d,x
 05D0 6F80                    clr     ,x+
 05D2 6F81                    clr     ,x++
 05D4 6F82                    clr     ,-x
 05D6 6F83                    clr     ,--x
 05D8 6F9F1234                clr     [$1234]
 05DC 6F94                    clr     [,x]
 05DE 6F94                    clr     [,x]
 05E0 6F980F                  clr     [15,x]
 05E3 6F987F                  clr     [127,x]
 05E6 6F990080                clr     [$0080,x]
 05EA 6F96                    clr     [a,x]
 05EC 6F95                    clr     [b,x]
 05EE 6F9B                    clr     [d,x]
 05F0 6F91                    clr     [,x++]
 05F2 6F93                    clr     [,--x]
 05F4 6FE4                    clr     ,s
 05F6 6FC4                    clr     ,u
 05F8 6F84                    clr     ,x
 05FA 6FA4                    clr     ,y
 05FC 4F                      clra
 05FD 5F                      clrb
 05FE 1CFD                    andcc   $FD                     ;                               [FD]
 0600 8113                    cmpa    #$13
 0602 9112                    cmpa    <$12
 0604 B11234                  cmpa    P1234                   ;                               [1234]
 0607 A184                    cmpa    ,x
 0609 A100                    cmpa    0,x
 060B A101                    cmpa    1,x
 060D A11F                    cmpa    -1,x
 060F A10F                    cmpa    15,x
 0611 A110                    cmpa    -16,x
 0613 A18810                  cmpa    16,x
 0616 A188EF                  cmpa    -17,x
 0619 A1887F                  cmpa    127,x
 061C A18880                  cmpa    -128,x
 061F A1890080                cmpa    $0080,x
 0623 A189FF7F                cmpa    -$0081,x
 0627 A186                    cmpa    a,x
 0629 A185                    cmpa    b,x
 062B A18B                    cmpa    d,x
 062D A180                    cmpa    ,x+
 062F A181                    cmpa    ,x++
 0631 A182                    cmpa    ,-x
 0633 A183                    cmpa    ,--x
 0635 A19F1234                cmpa    [$1234]
 0639 A194                    cmpa    [,x]
 063B A194                    cmpa    [,x]
 063D A1980F                  cmpa    [15,x]
 0640 A1987F                  cmpa    [127,x]
 0643 A1990080                cmpa    [$0080,x]
 0647 A196                    cmpa    [a,x]
 0649 A195                    cmpa    [b,x]
 064B A19B                    cmpa    [d,x]
 064D A191                    cmpa    [,x++]
 064F A193                    cmpa    [,--x]
 0651 A19DF9AB                cmpa    [D0000,pcr]
 0655 A19DFAB6                cmpa    [D010F,pcr]
 0659 A19DFA76                cmpa    [D00D3,pcr]
 065D A19DFF24                cmpa    [D0583,pcr]
 0661 A1E4                    cmpa    ,s
 0663 A1C4                    cmpa    ,u
 0665 A184                    cmpa    ,x
 0667 A1A4                    cmpa    ,y
 0669 C113                    cmpb    #$13
 066B D112                    cmpb    <$12
 066D F11234                  cmpb    P1234                   ;                               [1234]
 0670 E184                    cmpb    ,x
 0672 E100                    cmpb    0,x
 0674 E101                    cmpb    1,x
 0676 E11F                    cmpb    -1,x
 0678 E10F                    cmpb    15,x
 067A E110                    cmpb    -16,x
 067C E18810                  cmpb    16,x
 067F E188EF                  cmpb    -17,x
 0682 E1887F                  cmpb    127,x
 0685 E18880                  cmpb    -128,x
 0688 E1890080                cmpb    $0080,x
 068C E189FF7F                cmpb    -$0081,x
 0690 E186                    cmpb    a,x
 0692 E185                    cmpb    b,x
 0694 E18B                    cmpb    d,x
 0696 E180                    cmpb    ,x+
 0698 E181                    cmpb    ,x++
 069A E182                    cmpb    ,-x
 069C E183                    cmpb    ,--x
 069E E19F1234                cmpb    [$1234]
 06A2 E194                    cmpb    [,x]
 06A4 E194                    cmpb    [,x]
 06A6 E1980F                  cmpb    [15,x]
 06A9 E1987F                  cmpb    [127,x]
 06AC E1990080                cmpb    [$0080,x]
 06B0 E196                    cmpb    [a,x]
 06B2 E195                    cmpb    [b,x]
 06B4 E19B                    cmpb    [d,x]
 06B6 E191                    cmpb    [,x++]
 06B8 E193                    cmpb    [,--x]
 06BA E19DFEC7                cmpb    [D0583,pcr]
 06BE E1E4                    cmpb    ,s
 06C0 E1C4                    cmpb    ,u
 06C2 E184                    cmpb    ,x
 06C4 E1A4                    cmpb    ,y
 06C6 10831234                cmpd    #$1234
 06CA 10830013                cmpd    #$0013
 06CE 109312                  cmpd    <$12
 06D1 10B31234                cmpd    P1234                   ;                               [1234]
 06D5 10A384                  cmpd    ,x
                      D06D6:                                  ;                               [06D6]
 06D8 10A300                  cmpd    0,x
 06DB 10A301                  cmpd    1,x
 06DE 10A31F                  cmpd    -1,x
 06E1 10A30F                  cmpd    15,x
 06E4 10A310                  cmpd    -16,x
 06E7 10A38810                cmpd    16,x
 06EB 10A388EF                cmpd    -17,x
 06EF 10A3887F                cmpd    127,x
 06F3 10A38880                cmpd    -128,x
 06F7 10A3890080              cmpd    $0080,x
 06FC 10A389FF7F              cmpd    -$0081,x
 0701 10A386                  cmpd    a,x
 0704 10A385                  cmpd    b,x
 0707 10A38B                  cmpd    d,x
 070A 10A380                  cmpd    ,x+
 070D 10A381                  cmpd    ,x++
 0710 10A382                  cmpd    ,-x
 0713 10A383                  cmpd    ,--x
 0716 10A39F1234              cmpd    [$1234]
 071B 10A394                  cmpd    [,x]
 071E 10A394                  cmpd    [,x]
 0721 10A3980F                cmpd    [15,x]
 0725 10A3987F                cmpd    [127,x]
 0729 10A3990080              cmpd    [$0080,x]
 072E 10A396                  cmpd    [a,x]
 0731 10A395                  cmpd    [b,x]
 0734 10A39B                  cmpd    [d,x]
 0737 10A391                  cmpd    [,x++]
 073A 10A393                  cmpd    [,--x]
 073D 10A39DFE43              cmpd    [D0583,pcr]
 0742 10A39C92                cmpd    [D06D6,pcr]
 0746 10A39D0011              cmpd    [D075A,pcr]
 074B 10A39D0214              cmpd    [D0962,pcr]
 0750 10A3E4                  cmpd    ,s
 0753 10A3C4                  cmpd    ,u
 0756 10A384                  cmpd    ,x
 0759 10A3A4                  cmpd    ,y
                      D075A:                                  ;                               [075A]
 075C 118C4321                cmps    #$4321
 0760 118C0013                cmps    #$0013
 0764 119C12                  cmps    <$12
 0767 11BC1234                cmps    P1234                   ;                               [1234]
 076B 11AC84                  cmps    ,x
 076E 11AC00                  cmps    0,x
 0771 11AC01                  cmps    1,x
 0774 11AC1F                  cmps    -1,x
 0777 11AC0F                  cmps    15,x
 077A 11AC10                  cmps    -16,x
 077D 11AC8810                cmps    16,x
 0781 11AC88EF                cmps    -17,x
 0785 11AC887F                cmps    127,x
 0789 11AC8880                cmps    -128,x
 078D 11AC890080              cmps    $0080,x
 0792 11AC89FF7F              cmps    -$0081,x
 0797 11AC86                  cmps    a,x
 079A 11AC85                  cmps    b,x
 079D 11AC8B                  cmps    d,x
 07A0 11AC80                  cmps    ,x+
 07A3 11AC81                  cmps    ,x++
 07A6 11AC82                  cmps    ,-x
 07A9 11AC83                  cmps    ,--x
 07AC 11AC9F1234              cmps    [$1234]
 07B1 11AC94                  cmps    [,x]
 07B4 11AC94                  cmps    [,x]
 07B7 11AC980F                cmps    [15,x]
 07BB 11AC987F                cmps    [127,x]
 07BF 11AC990080              cmps    [$0080,x]
 07C4 11AC96                  cmps    [a,x]
 07C7 11AC95                  cmps    [b,x]
 07CA 11AC9B                  cmps    [d,x]
 07CD 11AC91                  cmps    [,x++]
 07D0 11AC93                  cmps    [,--x]
 07D3 11AC9DFDAD              cmps    [D0583,pcr]
 07D8 11ACE4                  cmps    ,s
 07DB 11ACC4                  cmps    ,u
 07DE 11AC84                  cmps    ,x
 07E1 11ACA4                  cmps    ,y
 07E4 11835678                cmpu    #$5678
 07E8 11830013                cmpu    #$0013
 07EC 119312                  cmpu    <$12
 07EF 11B31234                cmpu    P1234                   ;                               [1234]
 07F3 11A384                  cmpu    ,x
 07F6 11A300                  cmpu    0,x
 07F9 11A301                  cmpu    1,x
 07FC 11A31F                  cmpu    -1,x
 07FF 11A30F                  cmpu    15,x
 0802 11A310                  cmpu    -16,x
 0805 11A38810                cmpu    16,x
 0809 11A388EF                cmpu    -17,x
 080D 11A3887F                cmpu    127,x
 0811 11A38880                cmpu    -128,x
 0815 11A3890080              cmpu    $0080,x
 081A 11A389FF7F              cmpu    -$0081,x
 081F 11A386                  cmpu    a,x
 0822 11A385                  cmpu    b,x
 0825 11A38B                  cmpu    d,x
 0828 11A380                  cmpu    ,x+
 082B 11A381                  cmpu    ,x++
 082E 11A382                  cmpu    ,-x
 0831 11A383                  cmpu    ,--x
 0834 11A39F1234              cmpu    [$1234]
 0839 11A394                  cmpu    [,x]
 083C 11A394                  cmpu    [,x]
 083F 11A3980F                cmpu    [15,x]
 0843 11A3987F                cmpu    [127,x]
 0847 11A3990080              cmpu    [$0080,x]
 084C 11A396                  cmpu    [a,x]
 084F 11A395                  cmpu    [b,x]
 0852 11A39B                  cmpu    [d,x]
 0855 11A391                  cmpu    [,x++]
 0858 11A393                  cmpu    [,--x]
 085B 11A39DFD25              cmpu    [D0583,pcr]
 0860 11A3E4                  cmpu    ,s
 0863 11A3C4                  cmpu    ,u
 0866 11A384                  cmpu    ,x
 0869 11A3A4                  cmpu    ,y
 086C 8CABCD                  cmpx    #$ABCD
 086F 8C0013                  cmpx    #$0013
 0872 9C12                    cmpx    <$12
 0874 BC1234                  cmpx    P1234                   ;                               [1234]
 0877 AC84                    cmpx    ,x
 0879 AC00                    cmpx    0,x
 087B AC01                    cmpx    1,x
 087D AC1F                    cmpx    -1,x
 087F AC0F                    cmpx    15,x
 0881 AC10                    cmpx    -16,x
 0883 AC8810                  cmpx    16,x
 0886 AC88EF                  cmpx    -17,x
 0889 AC887F                  cmpx    127,x
 088C AC8880                  cmpx    -128,x
 088F AC890080                cmpx    $0080,x
 0893 AC89FF7F                cmpx    -$0081,x
 0897 AC86                    cmpx    a,x
 0899 AC85                    cmpx    b,x
 089B AC8B                    cmpx    d,x
 089D AC80                    cmpx    ,x+
 089F AC81                    cmpx    ,x++
 08A1 AC82                    cmpx    ,-x
 08A3 AC83                    cmpx    ,--x
 08A5 AC9F1234                cmpx    [$1234]
 08A9 ACF4                    cmpx    [,s]
 08AB ACD4                    cmpx    [,u]
 08AD AC94                    cmpx    [,x]
 08AF ACB4                    cmpx    [,y]
 08B1 AC94                    cmpx    [,x]
 08B3 AC980F                  cmpx    [15,x]
 08B6 AC987F                  cmpx    [127,x]
 08B9 AC990080                cmpx    [$0080,x]
 08BD AC96                    cmpx    [a,x]
 08BF AC95                    cmpx    [b,x]
 08C1 AC9B                    cmpx    [d,x]
 08C3 AC91                    cmpx    [,x++]
 08C5 AC93                    cmpx    [,--x]
 08C7 AC9DFCBA                cmpx    [D0583,pcr]
 08CB ACE4                    cmpx    ,s
 08CD ACC4                    cmpx    ,u
 08CF AC84                    cmpx    ,x
 08D1 ACA4                    cmpx    ,y
 08D3 108C4321                cmpy    #$4321
 08D7 108C0013                cmpy    #$0013
 08DB 109C12                  cmpy    <$12
 08DE 10BC1234                cmpy    P1234                   ;                               [1234]
 08E2 10AC84                  cmpy    ,x
 08E5 10AC00                  cmpy    0,x
                      A08E6:                                  ;                               [08E6]
 08E8 10AC01                  cmpy    1,x
 08EB 10AC1F                  cmpy    -1,x
 08EE 10AC0F                  cmpy    15,x
 08F1 10AC10                  cmpy    -16,x
 08F4 10AC8810                cmpy    16,x
 08F8 10AC88EF                cmpy    -17,x
 08FC 10AC887F                cmpy    127,x
 0900 10AC8880                cmpy    -128,x
 0904 10AC890080              cmpy    $0080,x
 0909 10AC89FF7F              cmpy    -$0081,x
 090E 10AC86                  cmpy    a,x
 0911 10AC85                  cmpy    b,x
 0914 10AC8B                  cmpy    d,x
 0917 10AC80                  cmpy    ,x+
 091A 10AC81                  cmpy    ,x++
 091D 10AC82                  cmpy    ,-x
 0920 10AC83                  cmpy    ,--x
 0923 10AC9F1234              cmpy    [$1234]
 0928 10ACF4                  cmpy    [,s]
 092B 10ACD4                  cmpy    [,u]
 092E 10AC94                  cmpy    [,x]
 0931 10ACB4                  cmpy    [,y]
 0934 10AC94                  cmpy    [,x]
 0937 10AC980F                cmpy    [15,x]
 093B 10AC987F                cmpy    [127,x]
 093F 10AC990080              cmpy    [$0080,x]
 0944 10AC96                  cmpy    [a,x]
 0947 10AC95                  cmpy    [b,x]
 094A 10AC9B                  cmpy    [d,x]
 094D 10AC91                  cmpy    [,x++]
 0950 10AC93                  cmpy    [,--x]
 0953 10AC9DFC2D              cmpy    [D0583,pcr]
 0958 10ACE4                  cmpy    ,s
 095B 10ACC4                  cmpy    ,u
 095E 10AC84                  cmpy    ,x
 0961 10ACA4                  cmpy    ,y
                      D0962:                                  ;                               [0962]
 0964 0303                    com     <$03
 0966 43                      coma
 0967 53                      comb
 0968 9C34                    cmpx    <$34
 096A 3C34                    cwai    $34
 096C 19                      daa
 096D 0A12                    dec     <$12
 096F 7A1234                  dec     P1234                   ;                               [1234]
 0972 6A84                    dec     ,x
 0974 6A00                    dec     0,x
 0976 6A01                    dec     1,x
 0978 6A1F                    dec     -1,x
 097A 6A0F                    dec     15,x
 097C 6A10                    dec     -16,x
 097E 6A8810                  dec     16,x
 0981 6A88EF                  dec     -17,x
 0984 6A887F                  dec     127,x
 0987 6A8880                  dec     -128,x
 098A 6A890080                dec     $0080,x
 098E 6A89FF7F                dec     -$0081,x
 0992 6A86                    dec     a,x
 0994 6A85                    dec     b,x
 0996 6A8B                    dec     d,x
 0998 6A80                    dec     ,x+
 099A 6A81                    dec     ,x++
 099C 6A82                    dec     ,-x
 099E 6A83                    dec     ,--x
 09A0 6A9F1234                dec     [$1234]
 09A4 6AF4                    dec     [,s]
 09A6 6AD4                    dec     [,u]
 09A8 6A94                    dec     [,x]
 09AA 6AB4                    dec     [,y]
 09AC 6A94                    dec     [,x]
 09AE 6A980F                  dec     [15,x]
 09B1 6A987F                  dec     [127,x]
 09B4 6A990080                dec     [$0080,x]
 09B8 6A96                    dec     [a,x]
 09BA 6A95                    dec     [b,x]
 09BC 6A9B                    dec     [d,x]
 09BE 6A91                    dec     [,x++]
 09C0 6A93                    dec     [,--x]
 09C2 6A9DFBBF                dec     [D0583,pcr]
 09C6 6AE4                    dec     ,s
 09C8 6AC4                    dec     ,u
 09CA 6A84                    dec     ,x
 09CC 6AA4                    dec     ,y
 09CE 4A                      deca
 09CF 5A                      decb
 09D0 327F                    leas    -1,s
 09D2 301F                    leax    -1,x
 09D4 8813                    eora    #$13
 09D6 9812                    eora    <$12
 09D8 B81234                  eora    P1234                   ;                               [1234]
 09DB A884                    eora    ,x
 09DD A800                    eora    0,x
 09DF A801                    eora    1,x
 09E1 A81F                    eora    -1,x
 09E3 A80F                    eora    15,x
 09E5 A810                    eora    -16,x
 09E7 A88810                  eora    16,x
 09EA A888EF                  eora    -17,x
 09ED A8887F                  eora    127,x
 09F0 A88880                  eora    -128,x
 09F3 A8890080                eora    $0080,x
 09F7 A889FF7F                eora    -$0081,x
 09FB A886                    eora    a,x
 09FD A885                    eora    b,x
 09FF A88B                    eora    d,x
 0A01 A880                    eora    ,x+
 0A03 A881                    eora    ,x++
 0A05 A882                    eora    ,-x
 0A07 A883                    eora    ,--x
 0A09 A89F1234                eora    [$1234]
 0A0D A894                    eora    [,x]
 0A0F A894                    eora    [,x]
 0A11 A8980F                  eora    [15,x]
 0A14 A8987F                  eora    [127,x]
 0A17 A8990080                eora    [$0080,x]
 0A1B A896                    eora    [a,x]
 0A1D A895                    eora    [b,x]
 0A1F A89B                    eora    [d,x]
 0A21 A8F1                    eora    [,s++]
 0A23 A8D1                    eora    [,u++]
 0A25 A891                    eora    [,x++]
 0A27 A8B1                    eora    [,y++]
 0A29 A8F3                    eora    [,--s]
 0A2B A8D3                    eora    [,--u]
 0A2D A893                    eora    [,--x]
 0A2F A8B3                    eora    [,--y]
 0A31 A89DFB50                eora    [D0583,pcr]
 0A35 A8E4                    eora    ,s
 0A37 A8C4                    eora    ,u
 0A39 A884                    eora    ,x
 0A3B A8A4                    eora    ,y
 0A3D C813                    eorb    #$13
 0A3F D812                    eorb    <$12
 0A41 F81234                  eorb    P1234                   ;                               [1234]
 0A44 E884                    eorb    ,x
 0A46 E800                    eorb    0,x
 0A48 E801                    eorb    1,x
 0A4A E81F                    eorb    -1,x
 0A4C E80F                    eorb    15,x
 0A4E E810                    eorb    -16,x
 0A50 E88810                  eorb    16,x
 0A53 E888EF                  eorb    -17,x
 0A56 E8887F                  eorb    127,x
 0A59 E88880                  eorb    -128,x
 0A5C E8890080                eorb    $0080,x
 0A60 E889FF7F                eorb    -$0081,x
 0A64 E886                    eorb    a,x
 0A66 E885                    eorb    b,x
 0A68 E88B                    eorb    d,x
 0A6A E880                    eorb    ,x+
 0A6C E881                    eorb    ,x++
 0A6E E882                    eorb    ,-x
 0A70 E883                    eorb    ,--x
 0A72 E89F1234                eorb    [$1234]
 0A76 E894                    eorb    [,x]
 0A78 E894                    eorb    [,x]
 0A7A E8980F                  eorb    [15,x]
 0A7D E8987F                  eorb    [127,x]
 0A80 E8990080                eorb    [$0080,x]
 0A84 E896                    eorb    [a,x]
 0A86 E895                    eorb    [b,x]
 0A88 E89B                    eorb    [d,x]
 0A8A E8F1                    eorb    [,s++]
 0A8C E8D1                    eorb    [,u++]
 0A8E E891                    eorb    [,x++]
 0A90 E8B1                    eorb    [,y++]
 0A92 E8F3                    eorb    [,--s]
 0A94 E8D3                    eorb    [,--u]
 0A96 E893                    eorb    [,--x]
 0A98 E8B3                    eorb    [,--y]
 0A9A E89DFAE7                eorb    [D0583,pcr]
 0A9E E8E4                    eorb    ,s
 0AA0 E8C4                    eorb    ,u
 0AA2 E884                    eorb    ,x
 0AA4 E8A4                    eorb    ,y
 0AA6 1E01                    exg     d,x
 0AA8 1E23                    exg     y,u
 0AAA 1E45                    exg     s,pc
 0AAC 1E89                    exg     a,b
 0AAE 1EAB                    exg     ccr,dpr
 0AB0 0C12                    inc     <$12
 0AB2 7C1234                  inc     P1234                   ;                               [1234]
 0AB5 6C84                    inc     ,x
 0AB7 6C00                    inc     0,x
 0AB9 6C01                    inc     1,x
 0ABB 6C1F                    inc     -1,x
 0ABD 6C0F                    inc     15,x
 0ABF 6C10                    inc     -16,x
 0AC1 6C8810                  inc     16,x
 0AC4 6C88EF                  inc     -17,x
 0AC7 6C887F                  inc     127,x
 0ACA 6C8880                  inc     -128,x
 0ACD 6C890080                inc     $0080,x
 0AD1 6C89FF7F                inc     -$0081,x
 0AD5 6C86                    inc     a,x
 0AD7 6C85                    inc     b,x
 0AD9 6C8B                    inc     d,x
 0ADB 6C80                    inc     ,x+
 0ADD 6C81                    inc     ,x++
 0ADF 6C82                    inc     ,-x
 0AE1 6C83                    inc     ,--x
 0AE3 6C9F1234                inc     [$1234]
 0AE7 6CF4                    inc     [,s]
 0AE9 6CD4                    inc     [,u]
 0AEB 6C94                    inc     [,x]
 0AED 6CB4                    inc     [,y]
 0AEF 6C94                    inc     [,x]
 0AF1 6C980F                  inc     [15,x]
 0AF4 6C987F                  inc     [127,x]
 0AF7 6C990080                inc     [$0080,x]
 0AFB 6C96                    inc     [a,x]
 0AFD 6C95                    inc     [b,x]
 0AFF 6C9B                    inc     [d,x]
 0B01 6CF1                    inc     [,s++]
 0B03 6CD1                    inc     [,u++]
 0B05 6C91                    inc     [,x++]
 0B07 6CB1                    inc     [,y++]
 0B09 6CF3                    inc     [,--s]
 0B0B 6CD3                    inc     [,--u]
 0B0D 6C93                    inc     [,--x]
 0B0F 6CB3                    inc     [,--y]
 0B11 6C9DFA70                inc     [D0583,pcr]
 0B15 6CE4                    inc     ,s
 0B17 6CC4                    inc     ,u
 0B19 6C84                    inc     ,x
 0B1B 6CA4                    inc     ,y
 0B1D 4C                      inca
 0B1E 5C                      incb
 0B1F 3261                    leas    1,s
 0B21 3261                    leas    1,s
 0B23 3341                    leau    1,u
 0B25 3001                    leax    1,x
 0B27 3001                    leax    1,x
 0B29 3121                    leay    1,y
                              

 0B2B 2602                    bne     A0B2C                   ;                               [0B2C]

 0B2D 0E12                    jmp     <$12

                       
                      A0B2C:                                  ;                               [0B2C]
 0B2F 2603                    bne     A0B31                   ;                               [0B31]

 0B31 7E1234                  jmp     P1234                   ;                               [1234]

                      A0B31:                                  ;                               [0B31]
 0B34 2602                    bne     A0B35                   ;                               [0B35]

 0B36 6E84                    jmp     ,x

                       
                      A0B35:                                  ;                               [0B35]
 0B38 2602                    bne     A0B39                   ;                               [0B39]

 0B3A 6E00                    jmp     0,x

                       
                      A0B39:                                  ;                               [0B39]
 0B3C 2602                    bne     A0B3D                   ;                               [0B3D]

 0B3E 6E01                    jmp     1,x

                       
                      A0B3D:                                  ;                               [0B3D]
 0B40 2602                    bne     A0B41                   ;                               [0B41]

 0B42 6E1F                    jmp     -1,x

                       
                      A0B41:                                  ;                               [0B41]
 0B44 2602                    bne     A0B45                   ;                               [0B45]

 0B46 6E0F                    jmp     15,x

                       
                      A0B45:                                  ;                               [0B45]
 0B48 2602                    bne     A0B49                   ;                               [0B49]

 0B4A 6E10                    jmp     -16,x

                       
                      A0B49:                                  ;                               [0B49]
 0B4C 2603                    bne     A0B4E                   ;                               [0B4E]

 0B4E 6E8810                  jmp     16,x

                       
                      A0B4E:                                  ;                               [0B4E]
 0B51 2603                    bne     A0B53                   ;                               [0B53]

 0B53 6E88EF                  jmp     -17,x

                       
                      A0B53:                                  ;                               [0B53]
 0B56 2603                    bne     A0B58                   ;                               [0B58]

 0B58 6E887F                  jmp     127,x

                       
                      A0B58:                                  ;                               [0B58]
 0B5B 2603                    bne     A0B5D                   ;                               [0B5D]

 0B5D 6E8880                  jmp     -128,x

                       
                      A0B5D:                                  ;                               [0B5D]
 0B60 2604                    bne     A0B63                   ;                               [0B63]

 0B62 6E890080                jmp     $0080,x

                       
                      A0B63:                                  ;                               [0B63]
 0B66 2604                    bne     A0B69                   ;                               [0B69]

 0B68 6E89FF7F                jmp     -$0081,x

                       
                      A0B69:                                  ;                               [0B69]
 0B6C 2602                    bne     A0B6D                   ;                               [0B6D]

 0B6E 6E86                    jmp     a,x

                       
                      A0B6D:                                  ;                               [0B6D]
 0B70 2602                    bne     A0B71                   ;                               [0B71]

 0B72 6E85                    jmp     b,x

                       
                      A0B71:                                  ;                               [0B71]
 0B74 2602                    bne     A0B75                   ;                               [0B75]

 0B76 6E8B                    jmp     d,x

                       
                      A0B75:                                  ;                               [0B75]
 0B78 2602                    bne     A0B79                   ;                               [0B79]

 0B7A 6E80                    jmp     ,x+

                       
                      A0B79:                                  ;                               [0B79]
 0B7C 2602                    bne     A0B7D                   ;                               [0B7D]

 0B7E 6E81                    jmp     ,x++

                       
                      A0B7D:                                  ;                               [0B7D]
 0B80 2602                    bne     A0B81                   ;                               [0B81]

 0B82 6E82                    jmp     ,-x

                       
                      A0B81:                                  ;                               [0B81]
 0B84 2602                    bne     A0B85                   ;                               [0B85]

 0B86 6E83                    jmp     ,--x

                       
                      A0B85:                                  ;                               [0B85]
 0B88 2604                    bne     A0B8B                   ;                               [0B8B]

 0B8A 6E9F1234                jmp     [$1234]

                       
                      A0B8B:                                  ;                               [0B8B]
 0B8E 2602                    bne     A0B8F                   ;                               [0B8F]

 0B90 6EF4                    jmp     [,s]

                       
                      A0B8F:                                  ;                               [0B8F]
 0B92 2602                    bne     A0B93                   ;                               [0B93]

 0B94 6ED4                    jmp     [,u]

                       
                      A0B93:                                  ;                               [0B93]
 0B96 2602                    bne     A0B97                   ;                               [0B97]

 0B98 6E94                    jmp     [,x]

                       
                      A0B97:                                  ;                               [0B97]
 0B9A 2602                    bne     A0B9B                   ;                               [0B9B]

 0B9C 6EB4                    jmp     [,y]

                       
                      A0B9B:                                  ;                               [0B9B]
 0B9E 2602                    bne     A0B9F                   ;                               [0B9F]

 0BA0 6E94                    jmp     [,x]

                       
                      A0B9F:                                  ;                               [0B9F]
 0BA2 2603                    bne     A0BA4                   ;                               [0BA4]

 0BA4 6E980F                  jmp     [15,x]

                       
                      A0BA4:                                  ;                               [0BA4]
 0BA7 2603                    bne     A0BA9                   ;                               [0BA9]

 0BA9 6E987F                  jmp     [127,x]

                       
                      A0BA9:                                  ;                               [0BA9]
 0BAC 2604                    bne     A0BAF                   ;                               [0BAF]

 0BAE 6E990080                jmp     [$0080,x]

                       
                      A0BAF:                                  ;                               [0BAF]
 0BB2 2602                    bne     A0BB3                   ;                               [0BB3]

 0BB4 6E96                    jmp     [a,x]

                       
                      A0BB3:                                  ;                               [0BB3]
 0BB6 2602                    bne     A0BB7                   ;                               [0BB7]

 0BB8 6E95                    jmp     [b,x]

                       
                      A0BB7:                                  ;                               [0BB7]
 0BBA 2602                    bne     A0BBB                   ;                               [0BBB]

 0BBC 6E9B                    jmp     [d,x]

                       
                      A0BBB:                                  ;                               [0BBB]
 0BBE 2602                    bne     A0BBF                   ;                               [0BBF]

 0BC0 6EF1                    jmp     [,s++]

                       
                      A0BBF:                                  ;                               [0BBF]
 0BC2 2602                    bne     A0BC3                   ;                               [0BC3]

 0BC4 6ED1                    jmp     [,u++]

                       
                      A0BC3:                                  ;                               [0BC3]
 0BC6 2602                    bne     A0BC7                   ;                               [0BC7]

 0BC8 6E91                    jmp     [,x++]

                       
                      A0BC7:                                  ;                               [0BC7]
 0BCA 2602                    bne     A0BCB                   ;                               [0BCB]

 0BCC 6EB1                    jmp     [,y++]

                       
                      A0BCB:                                  ;                               [0BCB]
 0BCE 2602                    bne     A0BCF                   ;                               [0BCF]

 0BD0 6EF3                    jmp     [,--s]

                       
                      A0BCF:                                  ;                               [0BCF]
 0BD2 2602                    bne     A0BD3                   ;                               [0BD3]

 0BD4 6ED3                    jmp     [,--u]

                       
                      A0BD3:                                  ;                               [0BD3]
 0BD6 2602                    bne     A0BD7                   ;                               [0BD7]

 0BD8 6E93                    jmp     [,--x]

                       
                      A0BD7:                                  ;                               [0BD7]
 0BDA 2602                    bne     A0BDB                   ;                               [0BDB]

 0BDC 6EB3                    jmp     [,--y]

                       
                      A0BDB:                                  ;                               [0BDB]
 0BDE 2604                    bne     A0BE1                   ;                               [0BE1]

 0BE0 6E9DF9A1                jmp     [D0583,pcr]

                       
                      A0BE1:                                  ;                               [0BE1]
 0BE4 2602                    bne     A0BE5                   ;                               [0BE5]

 0BE6 6EE4                    jmp     ,s

                       
                      A0BE5:                                  ;                               [0BE5]
 0BE8 2602                    bne     A0BE9                   ;                               [0BE9]

 0BEA 6EC4                    jmp     ,u

                       
                      A0BE9:                                  ;                               [0BE9]
 0BEC 2602                    bne     A0BED                   ;                               [0BED]

 0BEE 6E84                    jmp     ,x

                       
                      A0BED:                                  ;                               [0BED]
 0BF0 2602                    bne     A0BF1                   ;                               [0BF1]

 0BF2 6EA4                    jmp     ,y

                       
                      A0BF1:                                  ;                               [0BF1]
 0BF4 9D12                    jsr     <$12

 0BF6 BD1234                  jsr     P1234                   ;                               [1234]

 0BF9 AD84                    jsr     ,x

                       
                      S0BF7:
 0BFB 84AD00AD01AD1F          FCB     $84, $AD, $00, $AD, $01, $AD, $1F, $AD  ; ........  $0BF7
 0C02 AD
 0C03 0FAD10AD8810AD          FCB     $0F, $AD, $10, $AD, $88, $10, $AD, $88  ; ........  $0BFF
 0C0A 88
 0C0B EFAD887FAD8880          FCB     $EF, $AD, $88, $7F, $AD, $88, $80, $AD  ; ........  $0C07
 0C12 AD
 0C13 890080AD89FF7F          FCB     $89, $00, $80, $AD, $89, $FF, $7F, $AD  ; ........  $0C0F
 0C1A AD
 0C1B 86AD85AD8BAD80          FCB     $86, $AD, $85, $AD, $8B, $AD, $80, $AD  ; ........  $0C17
 0C22 AD
 0C23 81AD82AD83AD9F          FCB     $81, $AD, $82, $AD, $83, $AD, $9F, $12  ; ........  $0C1F
 0C2A 12
 0C2B 34ADF4ADD4AD94          FCB     $34, $AD, $F4, $AD, $D4, $AD, $94, $AD  ; 4.......  $0C27
 0C32 AD
 0C33 B4AD94AD980FAD          FCB     $B4, $AD, $94, $AD, $98, $0F, $AD, $98  ; ........  $0C2F
 0C3A 98
 0C3B 7FAD990080AD96          FCB     $7F, $AD, $99, $00, $80, $AD, $96, $AD  ; ........  $0C37
 0C42 AD
 0C43 95AD9BADF1ADD1          FCB     $95, $AD, $9B, $AD, $F1, $AD, $D1, $AD  ; ........  $0C3F
 0C4A AD
 0C4B 91ADB1ADF3ADD3          FCB     $91, $AD, $B1, $AD, $F3, $AD, $D3, $AD  ; ........  $0C47
 0C52 AD
 0C53 93ADB3AD9DF92D          FCB     $93, $AD, $B3, $AD, $9D, $F9, $2D, $AD  ; ......-.  $0C4F
 0C5A AD
 0C5B E4ADC4AD84ADA4          FCB     $E4, $AD, $C4, $AD, $84, $AD, $A4, $10  ; ........  $0C57
 0C62 10
 0C63 24F845102501AA          FCB     $24, $F8, $45, $10, $25, $01, $AA, $10  ; $.E.%...  $0C5F
 0C6A 10
 0C6B 27F83D102C01A2          FCB     $27, $F8, $3D, $10, $2C, $01, $A2, $10  ; '.=.,...  $0C67
 0C72 10
 0C73 2EF8351022019A          FCB     $2E, $F8, $35, $10, $22, $01, $9A, $10  ; ..5."...  $0C6F
 0C7A 10
 0C7B 24F82D102F0192          FCB     $24, $F8, $2D, $10, $2F, $01, $92, $10  ; $.-./...  $0C77
 0C82 10
 0C83 25F8251023018A          FCB     $25, $F8, $25, $10, $23, $01, $8A, $10  ; %.%.#...  $0C7F
 0C8A 10
 0C8B 2DF81D102B0182          FCB     $2D, $F8, $1D, $10, $2B, $01, $82, $10  ; -...+...  $0C87
 0C92 10
 0C93 26F815102A017A          FCB     $26, $F8, $15, $10, $2A, $01, $7A, $16  ; &...*.z.  $0C8F
 0C9A 16
 0C9B F80E1021017317          FCB     $F8, $0E, $10, $21, $01, $73, $17, $F8  ; ...!.s..  $0C97
 0CA2 F8
 0CA3 071028016C1029          FCB     $07, $10, $28, $01, $6C, $10, $29, $F7  ; ..(.l.).  $0C9F
 0CAA F7
 0CAB FF86018601C602          FCB     $FF, $86, $01, $86, $01, $C6, $02, $C6  ; ........  $0CA7
 0CB2 C6
 0CB3 02CC987610CE12          FCB     $02, $CC, $98, $76, $10, $CE, $12, $34  ; ...v...4  $0CAF
 0CBA 34
 0CBB CE23458E345610          FCB     $CE, $23, $45, $8E, $34, $56, $10, $8E  ; .#E.4V..  $0CB7
 0CC2 8E
 0CC3 4567329F123432          FCB     $45, $67, $32, $9F, $12, $34, $32, $7F  ; Eg2..42.  $0CBF
 0CCA 7F
 0CCB 326133F4335F33          FCB     $32, $61, $33, $F4, $33, $5F, $33, $41  ; 2a3.33A  $0CC7
 0CD2 41
 0CD3 30A4301F300131          FCB     $30, $A4, $30, $1F, $30, $01, $31, $84  ; 0.0.0.1.  $0CCF
 0CDA 84
 0CDB 313F3121081348          FCB     $31, $3F, $31, $21, $08, $13, $48, $58  ; 1?1!..HX  $0CD7
 0CE2 58
 0CE3 649F4321445444          FCB     $64, $9F, $43, $21, $44, $54, $44, $56  ; d.C!DTDV  $0CDF
 0CEA 56
 0CEB 3D003470567860          FCB     $3D, $00, $34, $70, $56, $78, $60, $9F  ; =.4pVx`.  $0CE7
 0CF2 9F
 0CF3 ABCD6099ABCD40          FCB     $AB, $CD, $60, $99, $AB, $CD, $40, $50  ; ..`...@P  $0CEF
 0CFA 50
 0CFB 128A139A12BA12          FCB     $12, $8A, $13, $9A, $12, $BA, $12, $34  ; .......4  $0CF7
 0D02 34
 0D03 AA84AA00AA01AA          FCB     $AA, $84, $AA, $00, $AA, $01, $AA, $1F  ; ........  $0CFF
 0D0A 1F
 0D0B AA0FAA10AA8810          FCB     $AA, $0F, $AA, $10, $AA, $88, $10, $AA  ; ........  $0D07
 0D12 AA
 0D13 88EFAA887FAA88          FCB     $88, $EF, $AA, $88, $7F, $AA, $88, $80  ; ........  $0D0F
 0D1A 80
 0D1B AA890080AA89FF          FCB     $AA, $89, $00, $80, $AA, $89, $FF, $7F  ; ........  $0D17
 0D22 7F
 0D23 AA86AA85AA8BAA          FCB     $AA, $86, $AA, $85, $AA, $8B, $AA, $80  ; ........  $0D1F
 0D2A 80
 0D2B AA81AA82AA83AA          FCB     $AA, $81, $AA, $82, $AA, $83, $AA, $9F  ; ........  $0D27
 0D32 9F
 0D33 1234AA94AA94AA          FCB     $12, $34, $AA, $94, $AA, $94, $AA, $98  ; .4......  $0D2F
 0D3A 98
 0D3B 0FAA987FAA9900          FCB     $0F, $AA, $98, $7F, $AA, $99, $00, $80  ; ........  $0D37
 0D42 80
 0D43 AA96AA95AA9BAA          FCB     $AA, $96, $AA, $95, $AA, $9B, $AA, $F1  ; ........  $0D3F
 0D4A F1
 0D4B AAD1AA91AAB1AA          FCB     $AA, $D1, $AA, $91, $AA, $B1, $AA, $F3  ; ........  $0D47
 0D52 F3
 0D53 AAD3AA93AAB3AA          FCB     $AA, $D3, $AA, $93, $AA, $B3, $AA, $9D  ; ........  $0D4F
 0D5A 9D
 0D5B F2A7AA9DF376AA          FCB     $F2, $A7, $AA, $9D, $F3, $76, $AA, $9D  ; .....v..  $0D57
 0D62 9D
 0D63 F3AEAA9DF81EAA          FCB     $F3, $AE, $AA, $9D, $F8, $1E, $AA, $E4  ; ........  $0D5F
 0D6A E4
 0D6B AAC4AA84AAA4CA          FCB     $AA, $C4, $AA, $84, $AA, $A4, $CA, $13  ; ........  $0D67
 0D72 13
 0D73 DA12FA1234EA84          FCB     $DA, $12, $FA, $12, $34, $EA, $84, $EA  ; ....4...  $0D6F
 0D7A EA
 0D7B 00EA01EA1FEA0F          FCB     $00, $EA, $01, $EA, $1F, $EA, $0F, $EA  ; ........  $0D77
 0D82 EA
 0D83 10EA8810EA88EF          FCB     $10, $EA, $88, $10, $EA, $88, $EF, $EA  ; ........  $0D7F
 0D8A EA
 0D8B 887FEA8880EA89          FCB     $88, $7F, $EA, $88, $80, $EA, $89, $00  ; ........  $0D87
 0D92 00
 0D93 80EA89FF7FEA86          FCB     $80, $EA, $89, $FF, $7F, $EA, $86, $EA  ; ........  $0D8F
 0D9A EA
 0D9B 85EA8BEA80EA81          FCB     $85, $EA, $8B, $EA, $80, $EA, $81, $EA  ; ........  $0D97
 0DA2 EA
 0DA3 82EA83EA9F1234          FCB     $82, $EA, $83, $EA, $9F, $12, $34, $EA  ; ......4.  $0D9F
 0DAA EA
 0DAB 94EA94EA980FEA          FCB     $94, $EA, $94, $EA, $98, $0F, $EA, $98  ; ........  $0DA7
 0DB2 98
 0DB3 7FEA990080EA96          FCB     $7F, $EA, $99, $00, $80, $EA, $96, $EA  ; ........  $0DAF
 0DBA EA
 0DBB 95EA9BEAF1EAD1          FCB     $95, $EA, $9B, $EA, $F1, $EA, $D1, $EA  ; ........  $0DB7
 0DC2 EA
 0DC3 91EAB1EAF3EAD3          FCB     $91, $EA, $B1, $EA, $F3, $EA, $D3, $EA  ; ........  $0DBF
 0DCA EA
 0DCB 93EAB3EA9DF232          FCB     $93, $EA, $B3, $EA, $9D, $F2, $32, $EA  ; ......2.  $0DC7
 0DD2 EA
 0DD3 9DF301EA9DF339          FCB     $9D, $F3, $01, $EA, $9D, $F3, $39, $EA  ; ......9.  $0DCF
 0DDA EA
 0DDB 9DF7A9EAE4EAC4          FCB     $9D, $F7, $A9, $EA, $E4, $EA, $C4, $EA  ; ........  $0DD7
 0DE2 EA
 0DE3 84EAA41A741A55          FCB     $84, $EA, $A4, $1A, $74, $1A, $55, $1A  ; ....t.U.  $0DDF
 0DEA 1A
 0DEB AA1A059A13EAE4          FCB     $AA, $1A, $05, $9A, $13, $EA, $E4, $34  ; .......4  $0DE7
 0DF2 34
 0DF3 023404340434D1          FCB     $02, $34, $04, $34, $04, $34, $D1, $36  ; .4.4.4.6  $0DEF
 0DFA 36
 0DFB 4E341035023504          FCB     $4E, $34, $10, $35, $02, $35, $04, $35  ; N4.5.5.5  $0DF7
 0E02 35
 0E03 26371635100934          FCB     $26, $37, $16, $35, $10, $09, $34, $49  ; &7.5..4I  $0DFF
 0E0A 49
 0E0B 59766789465626          FCB     $59, $76, $67, $89, $46, $56, $26, $01  ; Yvg.FV&.  $0E07
 0E12 01
 0E13 3B260139                FCB     $3B, $26, $01, $39                      ; ;&.9  $0E0F
                      D0E13:                                  ;                               [0E13]
 0E17 3404A0E0B21234          FCB     $34, $04, $A0, $E0, $B2, $12, $34, $A2  ; 4.....4.  $0E13
 0E1E A2
 0E1F 84E2C41A011A10          FCB     $84, $E2, $C4, $1A, $01, $1A, $10, $1A  ; ........  $0E1B
 0E26 1A
 0E27 021DA7C0A7C0E7          FCB     $02, $1D, $A7, $C0, $A7, $C0, $E7, $C2  ; ........  $0E23
 0E2E C2
 0E2F E7C2DD1310EFD4          FCB     $E7, $C2, $DD, $13, $10, $EF, $D4, $EF  ; ........  $0E2B
 0E36 EF
 0E37 F4AFB410AF94B0          FCB     $F4, $AF, $B4, $10, $AF, $94, $B0, $12  ; ........  $0E33
 0E3E 12
 0E3F 34A08817C03883          FCB     $34, $A0, $88, $17, $C0, $38, $83, $00  ; 4....8..  $0E3B
 0E46 00
 0E47 013F103F113F13          FCB     $01, $3F, $10, $3F, $11, $3F, $13, $1F  ; .?.?.?..  $0E43
 0E4E 1F
 0E4F 891F8A1F981F98          FCB     $89, $1F, $8A, $1F, $98, $1F, $98, $1F  ; ........  $0E4B
 0E56 1F
 0E57 A80D234D5D1F41          FCB     $A8, $0D, $23, $4D, $5D, $1F, $41, $1F  ; ..#M].A.  $0E53
 0E5E 1F
 0E5F 143C6D8904A76D          FCB     $14, $3C, $6D, $89, $04, $A7, $6D, $99  ; .<m...m.  $0E5B
 0E66 99
 0E67 04A7                    FCB     $04, $A7                                ; ..  $0E63
                       
                              END                                        ; End of part to assemble

SYMBOL TABLE
     A0593 02 0595     A0770 00 0770     A08E6 02 08E8     A0B2C 02 0B2F
     A0B31 02 0B34     A0B35 02 0B38     A0B39 02 0B3C     A0B3D 02 0B40
     A0B41 02 0B44     A0B45 02 0B48     A0B49 02 0B4C     A0B4E 02 0B51
     A0B53 02 0B56     A0B58 02 0B5B     A0B5D 02 0B60     A0B63 02 0B66
     A0B69 02 0B6C     A0B6D 02 0B70     A0B71 02 0B74     A0B75 02 0B78
     A0B79 02 0B7C     A0B7D 02 0B80     A0B81 02 0B84     A0B85 02 0B88
     A0B8B 02 0B8E     A0B8F 02 0B92     A0B93 02 0B96     A0B97 02 0B9A
     A0B9B 02 0B9E     A0B9F 02 0BA2     A0BA4 02 0BA7     A0BA9 02 0BAC
     A0BAF 02 0BB2     A0BB3 02 0BB6     A0BB7 02 0BBA     A0BBB 02 0BBE
     A0BBF 02 0BC2     A0BC3 02 0BC6     A0BC7 02 0BCA     A0BCB 02 0BCE
     A0BCF 02 0BD2     A0BD3 02 0BD6     A0BD7 02 0BDA     A0BDB 02 0BDE
     A0BE1 02 0BE4     A0BE5 02 0BE8     A0BE9 02 0BEC     A0BED 02 0BF0
     A0BF1 02 0BF4     D0000 02 0000     D00C1 00 00C1     D00C8 00 00C8
     D00D3 00 00D3     D010F 00 010F     D04A7 02 04A7     D0583 02 0585
     D06D6 02 06D8     D075A 02 075C     D0962 02 0964     D0E13 02 0E17
     D1183 00 1183     D4321 00 4321     D9876 00 9876     P1234 00 1234
     S0BF7 02 0BFB
65 SYMBOLS

0 error(s), 0 warning(s)
