                      ; Assembler file generated by Auto Disassembler 
V20230623
                      ;                Program developed by Ruud Baltissen
                      ;           
                      ; Syntax modified for A09 assembler by Fred Jan Kraan
                      ; variant for 68HC11

                      ; MC68HC11
                              OPT h11

 0000                 D0000   EQU     $0000
 0000                 Z00     EQU     $00
 0001                 Z01     EQU     $01
 0010                 D0010   EQU     $0010
 0010                 Z10     EQU     $10
 0012                 D0012   EQU     $0012
 0012                 Z12     EQU     $12
 00FF                 ZFF     EQU     $FF
 1234                 J1234   EQU     $1234
 3456                 D3456   EQU     $3456
 7FFF                 D7FFF   EQU     $7FFF
 8000                 P8000   EQU     $8000
 ABCD                 DABCD   EQU     $ABCD
                       
                       



                              org $FE00                               ; Begin 
address of this block
                      SFE00:
 FE00 1B                      aba
 FE01 3A                      abx
 FE02 183A                    aby
 FE04 9912                    adca    Z12                     ;                
               [12]
 FE06 B91234                  adca    J1234                   ;                
               [1234]
 FE09 8912                    adca    #$12
 FE0B A912                    adca    Z12,x                   ;                
               [12]
 FE0D 18A912                  adca    Z12,y
 FE10 D912                    adcb    Z12                     ;                
               [12]
 FE12 F91234                  adcb    J1234                   ;                
               [1234]
 FE15 C912                    adcb    #$12
 FE17 E912                    adcb    Z12,X                   ;                
               [12]
 FE19 18E912                  adcb    Z12,y
 FE1C 9B12                    adda    Z12                     ;                
               [12]
 FE1E BB1234                  adda    J1234                   ;                
               [1234]
 FE21 8B12                    adda    #$12
 FE23 AB12                    adda    Z12,X                   ;                
               [12]
 FE25 18AB12                  adda    Z12,y
 FE28 DB12                    addb    Z12                     ;                
               [12]
 FE2A FB1234                  addb    J1234                   ;                
               [1234]
 FE2D CB12                    addb    #$12
 FE2F EB12                    addb    Z12,X                   ;                
               [12]
 FE31 18EB12                  addb    Z12,y
 FE34 9412                    anda    Z12                     ;                
               [12]
 FE36 B41234                  anda    J1234                   ;                
               [1234]
 FE39 8412                    anda    #$12
 FE3B A412                    anda    Z12,X                   ;                
               [12]
 FE3D 18A412                  anda    Z12,y
 FE40 D412                    andb    Z12                     ;                
               [12]
 FE42 F41234                  andb    J1234                   ;                
               [1234]
 FE45 C412                    andb    #$12
 FE47 E412                    andb    Z12,X                   ;                
               [12]
 FE49 18E412                  andb    Z12,y
 FE4C 48                      asla
 FE4D 58                      aslb
 FE4E 05                      asld
 FE4F 780012                  asl     D0012                   ;                
               [0012]
 FE52 783456                  asl     D3456                   ;                
               [3456]
 FE55 6812                    asl     Z12,X                   ;                
               [12]
 FE57 186812                  asl     Z12,y
 FE5A 47                      asra
 FE5B 57                      asrb
 FE5C 770012                  asr     D0012                   ;                
               [0012]
 FE5F 773456                  asr     D3456                   ;                
               [3456]
 FE62 6712                    asr     Z12,X                   ;                
               [12]
 FE64 186712                  asr     Z12,y
                      AFE4B:                                  ;                
               [FE4B]
 FE67 24FE                    bcc     AFE4B                   ;                
               [FE4B]

 FE69 25FC                    bcs     AFE4B                   ;                
               [FE4B]

 FE6B 27FA                    beq     AFE4B                   ;                
               [FE4B]

 FE6D 2C04                    bge     AFE57                   ;                
               [FE57]

 FE6F 2EF6                    bgt     AFE4B                   ;                
               [FE4B]

 FE71 2246                    bhi     AFE7D                   ;                
               [FE7D]
                      ;       bclr    AFE57
                      ;       bclr    AFE57,x
                      ;       bclr    AFE57,y

                      AFE57:                                  ;                
               [FE57]
 FE73 9512                    bita    Z12                     ;                
               [12]
 FE75 B53456                  bita    D3456                   ;                
               [3456]
 FE78 A512                    bita    Z12,X                   ;                
               [12]
 FE7A 18A512                  bita    Z12,y
 FE7D 8580                    bita    #$80
 FE7F D512                    bitb    Z12                     ;                
               [12]
 FE81 F53456                  bitb    D3456                   ;                
               [3456]
 FE84 E512                    bitb    Z12,X                   ;                
               [12]
 FE86 18E512                  bitb    Z12,y
 FE89 C521                    bitb    #$21
 FE8B 2F00                    ble     AFE6B                   ;                
               [FEE5]
                              
                      AFE6B:

 FE8D 23FE                    bls     AFE6B                   ;                
               [FE4B]

 FE8F 2DFC                    blt     AFE6B                   ;                
               [FEEA]

 FE91 2BFA                    bmi     AFE6B                   ;                
               [FE4B]

 FE93 2624                    bne     AFE7D                   ;                
               [FE7D]

 FE95 2AF6                    bpl     AFE6B                   ;                
               [FE4B]

 FE97 20F4                    bra     AFE6B                   ;                
               [FE4B]
                      AFE66:  
 FE99 151000                  bclr    Z10, #01010101B
 FE9C 1D1000                  bclr    Z10,X,#01010101B
 FE9F 181D1000                bclr    Z10,y,#01010101B
                              
                      ;       brclr   D3456                   ; dd mm rr      
dd = 8-bit direct address
                      ;       brclr   $30,X $55                       ; ff mm 
rr      mm = 8-bit mask
                      ;       brclr   AFE66,X,#01010101B                      
; ff mm rr      ff = 8-bit positive offset

                      AFE70:                                  ;               
rr = 8-bit signed relative offset
                      ;       brset   Z12,$55 %01010101 AFE70
                      ;AFE72: brset   $20,X $55 AFE72
                      ;AFE74: brset   $30,Y %10000000 AFE74

 FEA3 141000                  bset    Z10, #01010101B
 FEA6 1C1000                  bset    Z10,X,#01010101B
 FEA9 181C1000                bset    Z10,y,#01010101B
                              
 FEAD 8D04                    bsr     SFE77
 FEAF 2802                    bvc     SFE77
 FEB1 2900                    bvs     SFE77


                      SFE77:
 FEB3 8DD228D02964                    FCB   $8D, $D2, $28, $D0, $29, $64      
; ..(.)d  $FE77
                       
                      AFE7D:                                  ;                
               [FE7D]
 FEB9 11                      cba
 FEBA 0C                      clc
 FEBB 0E                      cli
 FEBC 4F                      clra
 FEBD 5F                      clrb
 FEBE 7F0012                  clr     D0012                   ;                
               [0012]
 FEC1 7F3456                  clr     D3456                   ;                
               [3456]
 FEC4 6F12                    clr     Z12,X                   ;                
               [12]
 FEC6 186F12                  clr     Z12,y
 FEC9 0A                      clv
 FECA 9112                    cmpa    Z12                     ;                
               [12]
 FECC B13456                  cmpa    D3456                   ;                
               [3456]
 FECF A112                    cmpa    Z12,X                   ;                
               [12]
 FED1 18A112                  cmpa    Z12,y   
 FED4 8180                    cmpa    #$80
 FED6 D112                    cmpb    Z12                     ;                
               [12]
 FED8 F13456                  cmpb    D3456                   ;                
               [3456]
 FEDB E112                    cmpb    Z12,X                   ;                
               [12]
 FEDD 18E112                  cmpb    Z12,y
 FEE0 C121                    cmpb    #$21
 FEE2 43                      coma
 FEE3 53                      comb
 FEE4 730012                  com     D0012                   ;                
               [0012]
 FEE7 733456                  com     D3456                   ;                
               [3456]
 FEEA 63FF                    com     ZFF,X                   ;                
               [FF]
 FEEC 1863FF                  com     ZFF,y
 FEEF 8C1234                  cpx     #J1234                  ;                
               [1234]
 FEF2 AC00                    cpx     Z00,X                   ;                
               [00]
 FEF4 CDAC00                  cpx     Z00,Y
 FEF7 9C12                    cpx     Z12                     ;                
               [12]
 FEF9 BC8000                  cpx     P8000                   ;                
               [8000]
 FEFC 19                      daa
 FEFD 4A                      deca
 FEFE 5A                      decb
 FEFF 7A0012                  dec     D0012                   ;                
               [0012]
 FF02 7A3456                  dec     D3456                   ;                
               [3456]
 FF05 6A00                    dec     Z00,X                   ;                
               [00]
 FF07 186A00                  dec     Z00,Y
 FF0A 34                      des
 FF0B 09                      dex
 FF0C 9812                    eora    Z12                     ;                
               [12]
 FF0E B83456                  eora    D3456                   ;                
               [3456]
 FF11 A800                    eora    Z00,X                   ;                
               [00]
 FF13 18A800                  eora    Z00,Y
 FF16 884B                    eora    #$4B
 FF18 D812                    eorb    Z12                     ;                
               [12]
 FF1A F83456                  eorb    D3456                   ;                
               [3456]
 FF1D E800                    eorb    Z00,X                   ;                
               [00]
 FF1F 18E800                  eorb    Z00,Y
 FF22 C8E4                    eorb    #$E4
 FF24 4C                      inca
 FF25 5C                      incb
 FF26 7C0012                  inc     D0012                   ;                
               [0012]
 FF29 7C3456                  inc     D3456                   ;                
               [3456]
 FF2C 6C00                    inc     Z00,X                   ;                
               [00]
 FF2E 186C00                  inc     Z00,Y
 FF31 31                      ins
 FF32 08                      inx
 FF33 2803                    bvc     AFEE1                   ;                
               [FEE1]

 FF35 7EFFCC                  jmp     JFF54                   ;                
               [FF54]

                      AFEE1:                                  ;                
               [FEE1]
 FF38 28FE                    bvc     AFEE1                   ;                
               [FEE1]

 FF3A 6E10                    jmp     Z10,X                   ;                
               [10]
 FF3C 186E10                  jmp     Z10,Y

                      AFEE5:                                  ;                
               [FEE5]
 FF3F 28F7                    bvc     AFEE1                   ;                
               [FEE1]

 FF41 7E1234                  jmp     J1234                   ;                
               [1234]

                      AFEEA:                                  ;                
               [FEEA]
 FF44 ADFF                    jsr     ZFF,X                   ;                
               [FF]
 FF46 18ADFF                  jsr     ZFF,y

 FF49 BD8000                  jsr     P8000                   ;                
               [8000]

 FF4C BDFFC9                  jsr     PFF51                   ;                
               [FF51]

 FF4F 9612                    ldaa    Z12                     ;                
               [12]
 FF51 B63456                  ldaa    D3456                   ;                
               [3456]
 FF54 A600                    ldaa    Z00,X                   ;                
               [00]
 FF56 18A600                  ldaa    Z00,Y
 FF59 86E4                    ldaa    #$E4
 FF5B D612                    ldab    Z12                     ;                
               [12]
 FF5D F63456                  ldab    D3456                   ;                
               [3456]
 FF60 E600                    ldab    Z00,X                   ;                
               [00]
 FF62 18E600                  ldab    Z00,y
 FF65 C6E4                    ldab    #$E4
 FF67 9E12                    lds     Z12                     ;                
               [12]
 FF69 BE3456                  lds     D3456                   ;                
               [3456]
 FF6C AE00                    lds     Z00,X                   ;                
               [00]
 FF6E 18AE00                  lds     Z00,Y
 FF71 8E5678                  lds     #$5678                  ;                
               [5678]
 FF74 DE12                    ldx     Z12                     ;                
               [12]
 FF76 FE3456                  ldx     D3456                   ;                
               [3456]
 FF79 EE00                    ldx     Z00,X                   ;                
               [00]
 FF7B CDEE00                  ldx     Z00,Y
 FF7E CE8000                  ldx     #P8000                  ;                
               [8000]
 FF81 44                      lsra
 FF82 54                      lsrb
 FF83 740012                  lsr     D0012                   ;                
               [0012]
 FF86 743456                  lsr     D3456                   ;                
               [3456]
 FF89 6400                    lsr     Z00,X                   ;                
               [00]
 FF8B 186400                  lsr     Z00,Y
 FF8E 50                      negb
 FF8F 40                      nega
 FF90 700000                  neg     D0000                   ;                
               [0000]
 FF93 01                      nop
 FF94 9A00                    oraa    Z00                     ;                
               [00]
 FF96 BA3456                  oraa    D3456                   ;                
               [3456]
 FF99 AA00                    oraa    Z00,X                   ;                
               [00]
 FF9B 18AA00                  oraa    Z00,Y
 FF9E DA10                    orab    Z10                     ;                
               [10]
 FFA0 FA3456                  orab    D3456                   ;                
               [3456]
 FFA3 EA00                    orab    Z00,X                   ;                
               [00]
 FFA5 18EA00                  orab    Z00,Y
 FFA8 36                      psha
 FFA9 37                      pshb
 FFAA 32                      pula
 FFAB 33                      pulb
 FFAC 49                      rola
 FFAD 59                      rolb
 FFAE 791234                  rol     J1234                   ;                
               [1234]
 FFB1 790010                  rol     D0010                   ;                
               [0010]
 FFB4 6900                    rol     Z00,X                   ;                
               [00]
 FFB6 186900                  rol     Z00,Y
 FFB9 46                      rora
 FFBA 56                      rorb
 FFBB 761234                  ror     J1234                   ;                
               [1234]
 FFBE 760010                  ror     D0010                   ;                
               [0010]
 FFC1 66FF                    ror     ZFF,X                   ;                
               [FF]
 FFC3 1866FF                  ror     ZFF,Y
 FFC6 2801                    bvc     PFF51                   ;                
               [FF51]

 FFC8 3B                      rti

                      PFF51:                                  ;                
               [FF51]
 FFC9 2801                    bvc     JFF54                   ;                
               [FF54]

 FFCB 39                      rts

                      JFF54:                                  ;                
               [FF54]
 FFCC 10                      sba
 FFCD 8201                    sbca    #$01
 FFCF B21234                  sbca    J1234                   ;                
               [1234]
 FFD2 9210                    sbca    Z10                     ;                
               [10]
 FFD4 A2FF                    sbca    ZFF,X                   ;                
               [FF]
 FFD6 18A2FF                  sbca    ZFF,Y
 FFD9 C2FF                    sbcb    #$FF
 FFDB F21234                  sbcb    J1234                   ;                
               [1234]
 FFDE D210                    sbcb    Z10                     ;                
               [10]
 FFE0 E2FF                    sbcb    ZFF,X                   ;                
               [FF]
 FFE2 18E2FF                  sbcb    ZFF,Y
 FFE5 0D                      sec
 FFE6 0F                      sei
 FFE7 0B                      sev
 FFE8 B71234                  staa    J1234                   ;                
               [1234]
 FFEB 9710                    staa    Z10                     ;                
               [10]
 FFED A7FF                    staa    ZFF,X                   ;                
               [FF]
 FFEF 18A7FF                  staa    ZFF,Y
 FFF2 F71234                  stab    J1234                   ;                
               [1234]
 FFF5 D710                    stab    Z10                     ;                
               [10]
 FFF7 E701                    stab    Z01,X                   ;                
               [01]
 FFF9 18E701                  stab    Z01,Y
 FFFC BF7FFF                  sts     D7FFF                   ;                
               [7FFF]
 FFFF 9F10                    sts     Z10                     ;                
               [10]
 0001 AF01                    sts     Z01,X                   ;                
               [01]
 0003 18AF01                  sts     Z01,Y
 0006 FF8000                  stx     P8000                   ;                
               [8000]
 0009 DF10                    stx     Z10                     ;                
               [10]
 000B EF01                    stx     Z01,X                   ;                
               [01]
 000D CDEF01                  stx     Z01,Y
 0010 8041                    suba    #$41
 0012 B01234                  suba    J1234                   ;                
               [1234]
 0015 9010                    suba    Z10                     ;                
               [10]
 0017 A0FF                    suba    ZFF,X                   ;                
               [FF]
 0019 18A0FF                  suba    ZFF,Y
 001C C07B                    subb    #$7B
 001E F01234                  subb    J1234                   ;                
               [1234]
 0021 D010                    subb    Z10                     ;                
               [10]
 0023 E0FF                    subb    ZFF,X                   ;                
               [FF]
 0025 18E0FF                  subb    ZFF,Y
 0028 3F                      swi

 0029 16                      tab
 002A 06                      tap
 002B 17                      tba
 002C 07                      tpa
 002D 4D                      tsta
 002E 5D                      tstb
 002F 7DABCD                  tst     DABCD                   ;                
               [ABCD]
 0032 7D0010                  tst     D0010                   ;                
               [0010]
 0035 6DFF                    tst     ZFF,X                   ;                
               [FF]
 0037 186DFF                  tst     ZFF,Y
 003A 30                      tsx
 003B 35                      txs
 003C 3E                      wai

 003D 9012                    suba    D0012                   ;                
               [0012]
 003F 9012                    suba    Z12                     ;                
               [12]
 0041 9012                    suba    Z12                     ;                
               [12]
 0043 01                      nop
 0044 3B                      rti

                       
                      SFFB3:
 0045 013B013BFFFFFF          FCB $01, $3B, $01, $3B, $FF, $FF, $FF, $FF      
; .;.;....  $FFB3
 004C FF
 004D FFFFFFFFFFFFFF          FCB $FF, $FF, $FF, $FF, $FF, $FF, $FF, $FF      
; ........  $FFBB
 0054 FF
 0055 FFFFFFFFFFFFFF          FCB $FF, $FF, $FF, $FF, $FF, $FF, $FF, $FF      
; ........  $FFC3
 005C FF
 005D FFFFFFFFFFFFFF          FCB $FF, $FF, $FF, $FF, $FF, $FF, $FF, $FF      
; ........  $FFCB
 0064 FF
 0065 FFFFFFFFFFFFFF          FCB $FF, $FF, $FF, $FF, $FF, $FF, $FF, $FF      
; ........  $FFD3
 006C FF
 006D FFFFFFFFFFFFFF          FCB $FF, $FF, $FF, $FF, $FF, $FF, $FF, $FF      
; ........  $FFDB
 0074 FF
 0075 FFFFFFFFFFFFFF          FCB $FF, $FF, $FF, $FF, $FF, $FF, $FF, $FF      
; ........  $FFE3
 007C FF
 007D FFFFFFFFFFFFFF          FCB $FF, $FF, $FF, $FF, $FF, $FF, $FF, $FF      
; ........  $FFEB
 0084 FF
 0085 FFFFFFFFFFFFB1          FCB $FF, $FF, $FF, $FF, $FF, $FF, $B1, $FF      
; ........  $FFF3
 008C FF
 008D B3FFB5FE00              FCB $B3, $FF, $B5, $FE, $00             ; .....  
$FFFB
                       
                      END                                     ; End of part to 
assemble
                       
                       

SYMBOL TABLE
  01010101 38 0000     AFE4B 02 FE67     AFE57 02 FE73     AFE66 02 FE99
     AFE6B 02 FE8D     AFE70 02 FEA3     AFE7D 02 FEB9     AFEE1 02 FF38
     AFEE5 02 FF3F     AFEEA 02 FF44     D0000 00 0000     D0010 00 0010
     D0012 00 0012     D3456 00 3456     D7FFF 00 7FFF     DABCD 00 ABCD
       END 02 0092     J1234 00 1234     JFF54 02 FFCC     P8000 00 8000
     PFF51 02 FFC9     SFE00 02 FE00     SFE77 02 FEB3     SFFB3 02 0045
       Z00 00 0000       Z01 00 0001       Z10 00 0010       Z12 00 0012
       ZFF 00 00FF
29 SYMBOLS

0 error(s), 0 warning(s)
